; Function Attrs: mustprogress uwtable
define void @_ZN7Imf_3_420CompressedIDManifestC2ERKNS_10IDManifestE(ptr noundef nonnull align 8 captures(none) dereferenceable(24) %0, ptr noundef nonnull readonly align 8 captures(none) dereferenceable(24) %1) unnamed_addr #6 align 2 personality ptr @__gxx_personality_v0 {
  %3 = alloca %"class.std::vector.13", align 8
  %4 = alloca i64, align 8
  call void @llvm.lifetime.start.p0(i64 24, ptr nonnull %3) #34
  call void @llvm.memset.p0.i64(ptr noundef nonnull align 8 dereferenceable(24) %3, i8 0, i64 24, i1 false)
  invoke void @_ZNK7Imf_3_410IDManifest9serializeERSt6vectorIcSaIcEE(ptr noundef nonnull align 8 dereferenceable(24) %1, ptr noundef nonnull align 8 dereferenceable(24) %3)
          to label %5 unwind label %22

5:                                                ; preds = %2
  %6 = getelementptr inbounds nuw i8, ptr %3, i64 8
  %7 = load ptr, ptr %6, align 8, !tbaa !159
  %8 = load ptr, ptr %3, align 8, !tbaa !152
  %9 = ptrtoint ptr %7 to i64
  %10 = ptrtoint ptr %8 to i64
  %11 = sub i64 %9, %10
  %12 = invoke i64 @exr_compress_max_buffer_size(i64 noundef %11)
          to label %13 unwind label %24

13:                                               ; preds = %5
  call void @llvm.lifetime.start.p0(i64 8, ptr nonnull %4) #34
  %14 = call noalias ptr @malloc(i64 noundef %12) #40
  %15 = getelementptr inbounds nuw i8, ptr %0, i64 16
  store ptr %14, ptr %15, align 8, !tbaa !105
  %16 = load ptr, ptr %3, align 8, !tbaa !152
  %17 = invoke i32 @exr_compress_buffer(ptr noundef null, i32 noundef -1, ptr noundef %16, i64 noundef %11, ptr noundef %14, i64 noundef %12, ptr noundef nonnull %4)
          to label %18 unwind label %26

18:                                               ; preds = %13
  %.not = icmp eq i32 %17, 0
  br i1 %.not, label %30, label %19

19:                                               ; preds = %18
  %20 = call ptr @__cxa_allocate_exception(i64 72) #34
  invoke void @_ZN7Iex_3_48InputExcC1EPKc(ptr noundef nonnull align 8 dereferenceable(72) %20, ptr noundef nonnull @.str.23)
          to label %21 unwind label %28

21:                                               ; preds = %19
  invoke void @__cxa_throw(ptr nonnull %20, ptr nonnull @_ZTIN7Iex_3_48InputExcE, ptr nonnull @_ZN7Iex_3_48InputExcD1Ev) #35
          to label %53 unwind label %26

22:                                               ; preds = %2
  %23 = landingpad { ptr, i32 }
          cleanup
  br label %45

24:                                               ; preds = %5
  %25 = landingpad { ptr, i32 }
          cleanup
  br label %45

26:                                               ; preds = %21, %13
  %27 = landingpad { ptr, i32 }
          cleanup
  br label %44

28:                                               ; preds = %19
  %29 = landingpad { ptr, i32 }
          cleanup
  call void @__cxa_free_exception(ptr nonnull %20) #34
  br label %44

30:                                               ; preds = %18
  %31 = load ptr, ptr %15, align 8, !tbaa !105
  %32 = load i64, ptr %4, align 8, !tbaa !24
  %33 = call ptr @realloc(ptr noundef %31, i64 noundef %32) #41
  store ptr %33, ptr %15, align 8, !tbaa !105
  %34 = getelementptr inbounds nuw i8, ptr %0, i64 8
  store i64 %11, ptr %34, align 8, !tbaa !102
  %35 = load i64, ptr %4, align 8, !tbaa !24
  %36 = trunc i64 %35 to i32
  store i32 %36, ptr %0, align 8, !tbaa !104
  call void @llvm.lifetime.end.p0(i64 8, ptr nonnull %4) #34
  %37 = load ptr, ptr %3, align 8, !tbaa !152
  %.not.i.i.i = icmp eq ptr %37, null
  br i1 %.not.i.i.i, label %_ZNSt6vectorIcSaIcEED2Ev.exit, label %38

38:                                               ; preds = %30
  %39 = getelementptr inbounds nuw i8, ptr %3, i64 16
  %40 = load ptr, ptr %39, align 8, !tbaa !170
  %41 = ptrtoint ptr %40 to i64
  %42 = ptrtoint ptr %37 to i64
  %43 = sub i64 %41, %42
  call void @_ZdlPvm(ptr noundef nonnull %37, i64 noundef %43) #37
  br label %_ZNSt6vectorIcSaIcEED2Ev.exit

_ZNSt6vectorIcSaIcEED2Ev.exit:                    ; preds = %30, %38
  call void @llvm.lifetime.end.p0(i64 24, ptr nonnull %3) #34
  ret void

44:                                               ; preds = %28, %26
  %.pn = phi { ptr, i32 } [ %27, %26 ], [ %29, %28 ]
  call void @llvm.lifetime.end.p0(i64 8, ptr nonnull %4) #34
  br label %45

45:                                               ; preds = %24, %44, %22
  %.pn.pn.pn = phi { ptr, i32 } [ %23, %22 ], [ %.pn, %44 ], [ %25, %24 ]
  %46 = load ptr, ptr %3, align 8, !tbaa !152
  %.not.i.i.i14 = icmp eq ptr %46, null
  br i1 %.not.i.i.i14, label %_ZNSt6vectorIcSaIcEED2Ev.exit15, label %47

47:                                               ; preds = %45
  %48 = getelementptr inbounds nuw i8, ptr %3, i64 16
  %49 = load ptr, ptr %48, align 8, !tbaa !170
  %50 = ptrtoint ptr %49 to i64
  %51 = ptrtoint ptr %46 to i64
  %52 = sub i64 %50, %51
  call void @_ZdlPvm(ptr noundef nonnull %46, i64 noundef %52) #37
  br label %_ZNSt6vectorIcSaIcEED2Ev.exit15

_ZNSt6vectorIcSaIcEED2Ev.exit15:                  ; preds = %45, %47
  call void @llvm.lifetime.end.p0(i64 24, ptr nonnull %3) #34
  resume { ptr, i32 } %.pn.pn.pn

53:                                               ; preds = %21
  unreachable
}